; ModuleID = '6/2687.c'
source_filename = "6/2687.c"
target datalayout = "e-m:e-p270:32:32-p271:32:32-p272:64:64-i64:64-f80:128-n8:16:32:64-S128"
target triple = "x86_64-pc-linux-gnu"

@.str = private unnamed_addr constant [3 x i8] c"%d\00", align 1
@.str.1 = private unnamed_addr constant [5 x i8] c"%d%d\00", align 1
@.str.2 = private unnamed_addr constant [4 x i8] c"%d\0A\00", align 1

; Function Attrs: noinline nounwind uwtable
define dso_local i32 @main() #0 {
  %1 = alloca i32, align 4
  %2 = alloca i32, align 4
  %3 = alloca i32, align 4
  %4 = alloca i32, align 4
  %5 = alloca i32, align 4
  %6 = alloca i32, align 4
  %7 = alloca i32, align 4
  %8 = alloca i32, align 4
  store i32 0, i32* %1, align 4
  %9 = call i32 (i8*, ...) @__isoc99_scanf(i8* getelementptr inbounds ([3 x i8], [3 x i8]* @.str, i64 0, i64 0), i32* %2)
  br label %10

10:                                               ; preds = %78, %0
  %11 = load i32, i32* %2, align 4
  %12 = icmp sgt i32 %11, 0
  br i1 %12, label %13, label %81

13:                                               ; preds = %10
  store i32 0, i32* %5, align 4
  %14 = call i32 (i8*, ...) @__isoc99_scanf(i8* getelementptr inbounds ([5 x i8], [5 x i8]* @.str.1, i64 0, i64 0), i32* %3, i32* %4)
  store i32 0, i32* %7, align 4
  br label %15

15:                                               ; preds = %24, %13
  %16 = load i32, i32* %7, align 4
  %17 = load i32, i32* %4, align 4
  %18 = icmp slt i32 %16, %17
  br i1 %18, label %19, label %27

19:                                               ; preds = %15
  %20 = call i32 (i8*, ...) @__isoc99_scanf(i8* getelementptr inbounds ([3 x i8], [3 x i8]* @.str, i64 0, i64 0), i32* %8)
  %21 = load i32, i32* %5, align 4
  %22 = load i32, i32* %8, align 4
  %23 = add nsw i32 %21, %22
  store i32 %23, i32* %5, align 4
  br label %24

24:                                               ; preds = %19
  %25 = load i32, i32* %7, align 4
  %26 = add nsw i32 %25, 1
  store i32 %26, i32* %7, align 4
  br label %15

27:                                               ; preds = %15
  store i32 1, i32* %6, align 4
  br label %28

28:                                               ; preds = %55, %27
  %29 = load i32, i32* %6, align 4
  %30 = load i32, i32* %3, align 4
  %31 = sub nsw i32 %30, 1
  %32 = icmp slt i32 %29, %31
  br i1 %32, label %33, label %58

33:                                               ; preds = %28
  %34 = call i32 (i8*, ...) @__isoc99_scanf(i8* getelementptr inbounds ([3 x i8], [3 x i8]* @.str, i64 0, i64 0), i32* %8)
  %35 = load i32, i32* %5, align 4
  %36 = load i32, i32* %8, align 4
  %37 = add nsw i32 %35, %36
  store i32 %37, i32* %5, align 4
  store i32 1, i32* %7, align 4
  br label %38

38:                                               ; preds = %44, %33
  %39 = load i32, i32* %7, align 4
  %40 = load i32, i32* %4, align 4
  %41 = icmp slt i32 %39, %40
  br i1 %41, label %42, label %47

42:                                               ; preds = %38
  %43 = call i32 (i8*, ...) @__isoc99_scanf(i8* getelementptr inbounds ([3 x i8], [3 x i8]* @.str, i64 0, i64 0), i32* %8)
  br label %44

44:                                               ; preds = %42
  %45 = load i32, i32* %7, align 4
  %46 = add nsw i32 %45, 1
  store i32 %46, i32* %7, align 4
  br label %38

47:                                               ; preds = %38
  %48 = load i32, i32* %4, align 4
  %49 = icmp ne i32 %48, 1
  br i1 %49, label %50, label %54

50:                                               ; preds = %47
  %51 = load i32, i32* %5, align 4
  %52 = load i32, i32* %8, align 4
  %53 = add nsw i32 %51, %52
  store i32 %53, i32* %5, align 4
  br label %54

54:                                               ; preds = %50, %47
  br label %55

55:                                               ; preds = %54
  %56 = load i32, i32* %6, align 4
  %57 = add nsw i32 %56, 1
  store i32 %57, i32* %6, align 4
  br label %28

58:                                               ; preds = %28
  %59 = load i32, i32* %3, align 4
  %60 = icmp ne i32 %59, 1
  br i1 %60, label %61, label %75

61:                                               ; preds = %58
  store i32 0, i32* %7, align 4
  br label %62

62:                                               ; preds = %71, %61
  %63 = load i32, i32* %7, align 4
  %64 = load i32, i32* %4, align 4
  %65 = icmp slt i32 %63, %64
  br i1 %65, label %66, label %74

66:                                               ; preds = %62
  %67 = call i32 (i8*, ...) @__isoc99_scanf(i8* getelementptr inbounds ([3 x i8], [3 x i8]* @.str, i64 0, i64 0), i32* %8)
  %68 = load i32, i32* %5, align 4
  %69 = load i32, i32* %8, align 4
  %70 = add nsw i32 %68, %69
  store i32 %70, i32* %5, align 4
  br label %71

71:                                               ; preds = %66
  %72 = load i32, i32* %7, align 4
  %73 = add nsw i32 %72, 1
  store i32 %73, i32* %7, align 4
  br label %62

74:                                               ; preds = %62
  br label %75

75:                                               ; preds = %74, %58
  %76 = load i32, i32* %5, align 4
  %77 = call i32 (i8*, ...) @printf(i8* getelementptr inbounds ([4 x i8], [4 x i8]* @.str.2, i64 0, i64 0), i32 %76)
  br label %78

78:                                               ; preds = %75
  %79 = load i32, i32* %2, align 4
  %80 = add nsw i32 %79, -1
  store i32 %80, i32* %2, align 4
  br label %10

81:                                               ; preds = %10
  %82 = load i32, i32* %1, align 4
  ret i32 %82
}

declare dso_local i32 @__isoc99_scanf(i8*, ...) #1

declare dso_local i32 @printf(i8*, ...) #1


!llvm.module.flags = !{!0}
!llvm.ident = !{!1}

!0 = !{i32 1, !"wchar_size", i32 4}
!1 = !{!"clang version 10.0.0-4ubuntu1 "}
